; Function Attrs: mustprogress uwtable
define void @_ZN6icu_7522UIterCollationIterator13resetToOffsetEi(ptr noundef nonnull align 8 dereferenceable(400) %this, i32 noundef %newOffset) unnamed_addr #1 align 2 {
entry:
  tail call void @_ZN6icu_7517CollationIterator5resetEv(ptr noundef nonnull align 8 dereferenceable(389) %this)
  %iter = getelementptr inbounds i8, ptr %this, i64 392
  %0 = load ptr, ptr %iter, align 8
  %move = getelementptr inbounds i8, ptr %0, i64 40
  %1 = load ptr, ptr %move, align 8
  %call = tail call noundef i32 %1(ptr noundef %0, i32 noundef %newOffset, i32 noundef 0)
  ret void
}